target datalayout = "e-m:e-p270:32:32-p271:32:32-p272:64:64-i64:64-i128:128-f80:128-n8:16:32:64-S128"
target triple = "x86_64-pc-linux-gnu"

%struct.Aig_Obj_t_ = type { %union.anon, ptr, ptr, i64, i32, i32, %union.anon.0 }
%union.anon = type { ptr }
%union.anon.0 = type { ptr }
%struct.Aig_Man_t_ = type { ptr, ptr, ptr, ptr, ptr, ptr, ptr, %struct.Aig_Obj_t_, i32, i32, i32, i32, i32, i32, [7 x i32], i32, ptr, i32, ptr, i32, ptr, i32, i32, i32, ptr, i32, i32, i32, i32, i32, ptr, ptr, i32, ptr, ptr, i32, ptr, ptr, i32, i32, i32, ptr, ptr, ptr, ptr, ptr, ptr, ptr, ptr, ptr, ptr, ptr, ptr, ptr, ptr, i32, ptr, ptr, ptr, ptr, i32, i64, i64, i64, ptr, ptr }
%struct.Vec_Int_t_ = type { i32, i32, ptr }
%struct.Vec_Ptr_t_ = type { i32, i32, ptr }
%struct.Fra_Man_t_ = type { ptr, ptr, ptr, i32, ptr, i32, ptr, ptr, ptr, i32, ptr, ptr, ptr, ptr, i32, ptr, i64, i64, ptr, ptr, i32, ptr, i32, i32, i32, i32, i32, i32, i32, i32, i32, i32, i32, i32, i32, i32, i32, i32, i32, i32, i32, i64, i64, i64, i64, i64, i64, i64, i64, i64, i64, i64 }

@.str.7 = private unnamed_addr constant [71 x i8] c"Fra_OneHotAddKnownConstraint(): Adding clause makes SAT solver unsat.\0A\00", align 1

; Function Attrs: inlinehint nounwind uwtable
define internal i32 @toLitCond(i32 noundef %0, i32 noundef %1) #2 {
  %3 = alloca i32, align 4
  %4 = alloca i32, align 4
  store i32 %0, ptr %3, align 4, !tbaa !18
  store i32 %1, ptr %4, align 4, !tbaa !18
  %5 = load i32, ptr %3, align 4, !tbaa !18
  %6 = load i32, ptr %3, align 4, !tbaa !18
  %7 = add nsw i32 %5, %6
  %8 = load i32, ptr %4, align 4, !tbaa !18
  %9 = icmp ne i32 %8, 0
  %10 = zext i1 %9 to i32
  %11 = add nsw i32 %7, %10
  ret i32 %11
}

; Function Attrs: inlinehint nounwind uwtable
define internal i32 @Fra_ObjSatNum(ptr noundef %0) #2 {
  %2 = alloca ptr, align 8
  store ptr %0, ptr %2, align 8, !tbaa !8
  %3 = load ptr, ptr %2, align 8, !tbaa !8
  %4 = getelementptr inbounds nuw %struct.Aig_Obj_t_, ptr %3, i32 0, i32 6
  %5 = load ptr, ptr %4, align 8, !tbaa !62
  %6 = getelementptr inbounds nuw %struct.Fra_Man_t_, ptr %5, i32 0, i32 19
  %7 = load ptr, ptr %6, align 8, !tbaa !63
  %8 = load ptr, ptr %2, align 8, !tbaa !8
  %9 = getelementptr inbounds nuw %struct.Aig_Obj_t_, ptr %8, i32 0, i32 5
  %10 = load i32, ptr %9, align 4, !tbaa !10
  %11 = sext i32 %10 to i64
  %12 = getelementptr inbounds i32, ptr %7, i64 %11
  %13 = load i32, ptr %12, align 4, !tbaa !18
  ret i32 %13
}

; Function Attrs: inlinehint nounwind uwtable
define internal ptr @Aig_ManCi(ptr noundef %0, i32 noundef %1) #2 {
  %3 = alloca ptr, align 8
  %4 = alloca i32, align 4
  store ptr %0, ptr %3, align 8, !tbaa !42
  store i32 %1, ptr %4, align 4, !tbaa !18
  %5 = load ptr, ptr %3, align 8, !tbaa !42
  %6 = getelementptr inbounds nuw %struct.Aig_Man_t_, ptr %5, i32 0, i32 2
  %7 = load ptr, ptr %6, align 8, !tbaa !31
  %8 = load i32, ptr %4, align 4, !tbaa !18
  %9 = call ptr @Vec_PtrEntry(ptr noundef %7, i32 noundef %8)
  ret ptr %9
}

; Function Attrs: inlinehint nounwind uwtable
define internal i32 @Vec_IntEntry(ptr noundef %0, i32 noundef %1) #2 {
  %3 = alloca ptr, align 8
  %4 = alloca i32, align 4
  store ptr %0, ptr %3, align 8, !tbaa !29
  store i32 %1, ptr %4, align 4, !tbaa !18
  %5 = load ptr, ptr %3, align 8, !tbaa !29
  %6 = getelementptr inbounds nuw %struct.Vec_Int_t_, ptr %5, i32 0, i32 2
  %7 = load ptr, ptr %6, align 8, !tbaa !47
  %8 = load i32, ptr %4, align 4, !tbaa !18
  %9 = sext i32 %8 to i64
  %10 = getelementptr inbounds i32, ptr %7, i64 %9
  %11 = load i32, ptr %10, align 4, !tbaa !18
  ret i32 %11
}

; Function Attrs: inlinehint nounwind uwtable
define internal i32 @Vec_IntSize(ptr noundef %0) #2 {
  %2 = alloca ptr, align 8
  store ptr %0, ptr %2, align 8, !tbaa !29
  %3 = load ptr, ptr %2, align 8, !tbaa !29
  %4 = getelementptr inbounds nuw %struct.Vec_Int_t_, ptr %3, i32 0, i32 1
  %5 = load i32, ptr %4, align 4, !tbaa !44
  ret i32 %5
}

; Function Attrs: inlinehint nounwind uwtable
define internal ptr @Vec_PtrEntry(ptr noundef %0, i32 noundef %1) #2 {
  %3 = alloca ptr, align 8
  %4 = alloca i32, align 4
  store ptr %0, ptr %3, align 8, !tbaa !48
  store i32 %1, ptr %4, align 4, !tbaa !18
  %5 = load ptr, ptr %3, align 8, !tbaa !48
  %6 = getelementptr inbounds nuw %struct.Vec_Ptr_t_, ptr %5, i32 0, i32 2
  %7 = load ptr, ptr %6, align 8, !tbaa !51
  %8 = load i32, ptr %4, align 4, !tbaa !18
  %9 = sext i32 %8 to i64
  %10 = getelementptr inbounds ptr, ptr %7, i64 %9
  %11 = load ptr, ptr %10, align 8, !tbaa !52
  ret ptr %11
}

; Function Attrs: inlinehint nounwind uwtable
define internal i32 @Vec_PtrSize(ptr noundef %0) #2 {
  %2 = alloca ptr, align 8
  store ptr %0, ptr %2, align 8, !tbaa !48
  %3 = load ptr, ptr %2, align 8, !tbaa !48
  %4 = getelementptr inbounds nuw %struct.Vec_Ptr_t_, ptr %3, i32 0, i32 1
  %5 = load i32, ptr %4, align 4, !tbaa !49
  ret i32 %5
}

; Function Attrs: nounwind uwtable
define void @Fra_OneHotAddKnownConstraint(ptr noundef %0, ptr noundef %1) #0 {
  %3 = alloca ptr, align 8
  %4 = alloca ptr, align 8
  %5 = alloca ptr, align 8
  %6 = alloca ptr, align 8
  %7 = alloca ptr, align 8
  %8 = alloca i32, align 4
  %9 = alloca i32, align 4
  %10 = alloca i32, align 4
  %11 = alloca i32, align 4
  %12 = alloca i32, align 4
  %13 = alloca [2 x i32], align 4
  %14 = alloca i32, align 4
  store ptr %0, ptr %3, align 8, !tbaa !26
  store ptr %1, ptr %4, align 8, !tbaa !48
  call void @llvm.lifetime.start.p0(i64 8, ptr %5) #10
  call void @llvm.lifetime.start.p0(i64 8, ptr %6) #10
  call void @llvm.lifetime.start.p0(i64 8, ptr %7) #10
  call void @llvm.lifetime.start.p0(i64 4, ptr %8) #10
  call void @llvm.lifetime.start.p0(i64 4, ptr %9) #10
  call void @llvm.lifetime.start.p0(i64 4, ptr %10) #10
  call void @llvm.lifetime.start.p0(i64 4, ptr %11) #10
  call void @llvm.lifetime.start.p0(i64 4, ptr %12) #10
  call void @llvm.lifetime.start.p0(i64 8, ptr %13) #10
  store i32 0, ptr %8, align 4, !tbaa !18
  br label %15

15:                                               ; preds = %95, %2
  %16 = load i32, ptr %8, align 4, !tbaa !18
  %17 = load ptr, ptr %4, align 8, !tbaa !48
  %18 = call i32 @Vec_PtrSize(ptr noundef %17)
  %19 = icmp slt i32 %16, %18
  br i1 %19, label %20, label %24

20:                                               ; preds = %15
  %21 = load ptr, ptr %4, align 8, !tbaa !48
  %22 = load i32, ptr %8, align 4, !tbaa !18
  %23 = call ptr @Vec_PtrEntry(ptr noundef %21, i32 noundef %22)
  store ptr %23, ptr %5, align 8, !tbaa !29
  br label %24

24:                                               ; preds = %20, %15
  %25 = phi i1 [ false, %15 ], [ true, %20 ]
  br i1 %25, label %26, label %98

26:                                               ; preds = %24
  store i32 0, ptr %9, align 4, !tbaa !18
  br label %27

27:                                               ; preds = %91, %26
  %28 = load i32, ptr %9, align 4, !tbaa !18
  %29 = load ptr, ptr %5, align 8, !tbaa !29
  %30 = call i32 @Vec_IntSize(ptr noundef %29)
  %31 = icmp slt i32 %28, %30
  br i1 %31, label %32, label %36

32:                                               ; preds = %27
  %33 = load ptr, ptr %5, align 8, !tbaa !29
  %34 = load i32, ptr %9, align 4, !tbaa !18
  %35 = call i32 @Vec_IntEntry(ptr noundef %33, i32 noundef %34)
  store i32 %35, ptr %11, align 4, !tbaa !18
  br label %36

36:                                               ; preds = %32, %27
  %37 = phi i1 [ false, %27 ], [ true, %32 ]
  br i1 %37, label %38, label %94

38:                                               ; preds = %36
  %39 = load i32, ptr %9, align 4, !tbaa !18
  %40 = add nsw i32 %39, 1
  store i32 %40, ptr %10, align 4, !tbaa !18
  br label %41

41:                                               ; preds = %87, %38
  %42 = load i32, ptr %10, align 4, !tbaa !18
  %43 = load ptr, ptr %5, align 8, !tbaa !29
  %44 = call i32 @Vec_IntSize(ptr noundef %43)
  %45 = icmp slt i32 %42, %44
  br i1 %45, label %46, label %50

46:                                               ; preds = %41
  %47 = load ptr, ptr %5, align 8, !tbaa !29
  %48 = load i32, ptr %10, align 4, !tbaa !18
  %49 = call i32 @Vec_IntEntry(ptr noundef %47, i32 noundef %48)
  store i32 %49, ptr %12, align 4, !tbaa !18
  br label %50

50:                                               ; preds = %46, %41
  %51 = phi i1 [ false, %41 ], [ true, %46 ]
  br i1 %51, label %52, label %90

52:                                               ; preds = %50
  %53 = load ptr, ptr %3, align 8, !tbaa !26
  %54 = getelementptr inbounds nuw %struct.Fra_Man_t_, ptr %53, i32 0, i32 2
  %55 = load ptr, ptr %54, align 8, !tbaa !53
  %56 = load i32, ptr %11, align 4, !tbaa !18
  %57 = call ptr @Aig_ManCi(ptr noundef %55, i32 noundef %56)
  store ptr %57, ptr %6, align 8, !tbaa !8
  %58 = load ptr, ptr %3, align 8, !tbaa !26
  %59 = getelementptr inbounds nuw %struct.Fra_Man_t_, ptr %58, i32 0, i32 2
  %60 = load ptr, ptr %59, align 8, !tbaa !53
  %61 = load i32, ptr %12, align 4, !tbaa !18
  %62 = call ptr @Aig_ManCi(ptr noundef %60, i32 noundef %61)
  store ptr %62, ptr %7, align 8, !tbaa !8
  %63 = load ptr, ptr %6, align 8, !tbaa !8
  %64 = call i32 @Fra_ObjSatNum(ptr noundef %63)
  %65 = call i32 @toLitCond(i32 noundef %64, i32 noundef 1)
  %66 = getelementptr inbounds [2 x i32], ptr %13, i64 0, i64 0
  store i32 %65, ptr %66, align 4, !tbaa !18
  %67 = load ptr, ptr %7, align 8, !tbaa !8
  %68 = call i32 @Fra_ObjSatNum(ptr noundef %67)
  %69 = call i32 @toLitCond(i32 noundef %68, i32 noundef 1)
  %70 = getelementptr inbounds [2 x i32], ptr %13, i64 0, i64 1
  store i32 %69, ptr %70, align 4, !tbaa !18
  %71 = load ptr, ptr %3, align 8, !tbaa !26
  %72 = getelementptr inbounds nuw %struct.Fra_Man_t_, ptr %71, i32 0, i32 13
  %73 = load ptr, ptr %72, align 8, !tbaa !60
  %74 = getelementptr inbounds [2 x i32], ptr %13, i64 0, i64 0
  %75 = getelementptr inbounds [2 x i32], ptr %13, i64 0, i64 0
  %76 = getelementptr inbounds i32, ptr %75, i64 2
  %77 = call i32 @sat_solver_addclause(ptr noundef %73, ptr noundef %74, ptr noundef %76)
  %78 = icmp ne i32 %77, 0
  br i1 %78, label %86, label %79

79:                                               ; preds = %52
  %80 = call i32 (ptr, ...) @printf(ptr noundef @.str.7)
  %81 = load ptr, ptr %3, align 8, !tbaa !26
  %82 = getelementptr inbounds nuw %struct.Fra_Man_t_, ptr %81, i32 0, i32 13
  %83 = load ptr, ptr %82, align 8, !tbaa !60
  call void @sat_solver_delete(ptr noundef %83)
  %84 = load ptr, ptr %3, align 8, !tbaa !26
  %85 = getelementptr inbounds nuw %struct.Fra_Man_t_, ptr %84, i32 0, i32 13
  store ptr null, ptr %85, align 8, !tbaa !60
  store i32 1, ptr %14, align 4
  br label %99

86:                                               ; preds = %52
  br label %87

87:                                               ; preds = %86
  %88 = load i32, ptr %10, align 4, !tbaa !18
  %89 = add nsw i32 %88, 1
  store i32 %89, ptr %10, align 4, !tbaa !18
  br label %41, !llvm.loop !87

90:                                               ; preds = %50
  br label %91

91:                                               ; preds = %90
  %92 = load i32, ptr %9, align 4, !tbaa !18
  %93 = add nsw i32 %92, 1
  store i32 %93, ptr %9, align 4, !tbaa !18
  br label %27, !llvm.loop !88

94:                                               ; preds = %36
  br label %95

95:                                               ; preds = %94
  %96 = load i32, ptr %8, align 4, !tbaa !18
  %97 = add nsw i32 %96, 1
  store i32 %97, ptr %8, align 4, !tbaa !18
  br label %15, !llvm.loop !89

98:                                               ; preds = %24
  store i32 0, ptr %14, align 4
  br label %99

99:                                               ; preds = %98, %79
  call void @llvm.lifetime.end.p0(i64 8, ptr %13) #10
  call void @llvm.lifetime.end.p0(i64 4, ptr %12) #10
  call void @llvm.lifetime.end.p0(i64 4, ptr %11) #10
  call void @llvm.lifetime.end.p0(i64 4, ptr %10) #10
  call void @llvm.lifetime.end.p0(i64 4, ptr %9) #10
  call void @llvm.lifetime.end.p0(i64 4, ptr %8) #10
  call void @llvm.lifetime.end.p0(i64 8, ptr %7) #10
  call void @llvm.lifetime.end.p0(i64 8, ptr %6) #10
  call void @llvm.lifetime.end.p0(i64 8, ptr %5) #10
  %100 = load i32, ptr %14, align 4
  switch i32 %100, label %102 [
    i32 0, label %101
    i32 1, label %101
  ]

101:                                              ; preds = %99, %99
  ret void

102:                                              ; preds = %99
  unreachable
}