; Function Attrs: nounwind uwtable
define void @Fra_OneHotAddKnownConstraint(ptr noundef captures(none) %0, ptr noundef readonly captures(none) %1) local_unnamed_addr #2 {
  %3 = alloca [2 x i32], align 4
  call void @llvm.lifetime.start.p0(i64 8, ptr nonnull %3) #19
  %4 = getelementptr i8, ptr %1, i64 4
  %.val46 = load i32, ptr %4, align 4, !tbaa !38
  %5 = icmp sgt i32 %.val46, 0
  br i1 %5, label %.lr.ph48, label %.critedge

.lr.ph48:                                         ; preds = %2
  %6 = getelementptr i8, ptr %1, i64 8
  %7 = getelementptr inbounds nuw i8, ptr %0, i64 16
  %8 = getelementptr inbounds nuw i8, ptr %3, i64 4
  %9 = getelementptr inbounds nuw i8, ptr %0, i64 104
  %10 = getelementptr inbounds nuw i8, ptr %3, i64 8
  br label %11

11:                                               ; preds = %.lr.ph48, %.critedge2
  %.val61 = phi i32 [ %.val46, %.lr.ph48 ], [ %.val, %.critedge2 ]
  %indvars.iv55 = phi i64 [ 0, %.lr.ph48 ], [ %indvars.iv.next56, %.critedge2 ]
  %.val30 = load ptr, ptr %6, align 8, !tbaa !40
  %12 = getelementptr inbounds nuw ptr, ptr %.val30, i64 %indvars.iv55
  %13 = load ptr, ptr %12, align 8, !tbaa !41
  %14 = getelementptr i8, ptr %13, i64 4
  %.val3243 = load i32, ptr %14, align 4, !tbaa !33
  %15 = icmp sgt i32 %.val3243, 0
  br i1 %15, label %.lr.ph45, label %.critedge2

.lr.ph45:                                         ; preds = %11
  %16 = getelementptr i8, ptr %13, i64 8
  br label %18

.critedge4.loopexit.loopexit:                     ; preds = %24
  %.pre = sext i32 %.val31 to i64
  br label %.critedge4.loopexit

.critedge4.loopexit:                              ; preds = %.critedge4.loopexit.loopexit, %18
  %.pre-phi = phi i64 [ %.pre, %.critedge4.loopexit.loopexit ], [ %19, %18 ]
  %.val32 = phi i32 [ %.val31, %.critedge4.loopexit.loopexit ], [ %.val3260, %18 ]
  %17 = icmp slt i64 %indvars.iv.next53, %.pre-phi
  %indvars.iv.next = add nuw nsw i64 %indvars.iv, 1
  br i1 %17, label %18, label %.critedge2.loopexit, !llvm.loop !84

18:                                               ; preds = %.lr.ph45, %.critedge4.loopexit
  %.val3260 = phi i32 [ %.val3243, %.lr.ph45 ], [ %.val32, %.critedge4.loopexit ]
  %indvars.iv52 = phi i64 [ 0, %.lr.ph45 ], [ %indvars.iv.next53, %.critedge4.loopexit ]
  %indvars.iv = phi i64 [ 1, %.lr.ph45 ], [ %indvars.iv.next, %.critedge4.loopexit ]
  %indvars.iv.next53 = add nuw nsw i64 %indvars.iv52, 1
  %19 = sext i32 %.val3260 to i64
  %20 = icmp slt i64 %indvars.iv.next53, %19
  br i1 %20, label %.lr.ph, label %.critedge4.loopexit

.lr.ph:                                           ; preds = %18
  %.val34 = load ptr, ptr %16, align 8, !tbaa !36
  %21 = getelementptr inbounds nuw i32, ptr %.val34, i64 %indvars.iv52
  %22 = load i32, ptr %21, align 4, !tbaa !16
  %23 = sext i32 %22 to i64
  br label %27

24:                                               ; preds = %27
  %indvars.iv.next50 = add nuw nsw i64 %indvars.iv49, 1
  %.val31 = load i32, ptr %14, align 4, !tbaa !33
  %25 = trunc nuw i64 %indvars.iv.next50 to i32
  %26 = icmp sgt i32 %.val31, %25
  br i1 %26, label %27, label %.critedge4.loopexit.loopexit, !llvm.loop !85

27:                                               ; preds = %.lr.ph, %24
  %indvars.iv49 = phi i64 [ %indvars.iv, %.lr.ph ], [ %indvars.iv.next50, %24 ]
  %.val33 = load ptr, ptr %16, align 8, !tbaa !36
  %28 = getelementptr inbounds nuw i32, ptr %.val33, i64 %indvars.iv49
  %29 = load i32, ptr %28, align 4, !tbaa !16
  %30 = load ptr, ptr %7, align 8, !tbaa !45
  %31 = getelementptr i8, ptr %30, i64 16
  %.val36 = load ptr, ptr %31, align 8, !tbaa !37
  %32 = getelementptr i8, ptr %.val36, i64 8
  %.val36.val = load ptr, ptr %32, align 8, !tbaa !40
  %33 = getelementptr inbounds ptr, ptr %.val36.val, i64 %23
  %34 = load ptr, ptr %33, align 8, !tbaa !41
  %35 = sext i32 %29 to i64
  %36 = getelementptr inbounds ptr, ptr %.val36.val, i64 %35
  %37 = load ptr, ptr %36, align 8, !tbaa !41
  %38 = getelementptr i8, ptr %34, i64 36
  %.val39 = load i32, ptr %38, align 4, !tbaa !3
  %39 = getelementptr i8, ptr %34, i64 40
  %.val40 = load ptr, ptr %39, align 8, !tbaa !53
  %40 = getelementptr i8, ptr %.val40, i64 152
  %.val40.val = load ptr, ptr %40, align 8, !tbaa !54
  %41 = sext i32 %.val39 to i64
  %42 = getelementptr inbounds i32, ptr %.val40.val, i64 %41
  %43 = load i32, ptr %42, align 4, !tbaa !16
  %44 = shl nsw i32 %43, 1
  %45 = or disjoint i32 %44, 1
  store i32 %45, ptr %3, align 4, !tbaa !16
  %46 = getelementptr i8, ptr %37, i64 36
  %.val37 = load i32, ptr %46, align 4, !tbaa !3
  %47 = getelementptr i8, ptr %37, i64 40
  %.val38 = load ptr, ptr %47, align 8, !tbaa !53
  %48 = getelementptr i8, ptr %.val38, i64 152
  %.val38.val = load ptr, ptr %48, align 8, !tbaa !54
  %49 = sext i32 %.val37 to i64
  %50 = getelementptr inbounds i32, ptr %.val38.val, i64 %49
  %51 = load i32, ptr %50, align 4, !tbaa !16
  %52 = shl nsw i32 %51, 1
  %53 = or disjoint i32 %52, 1
  store i32 %53, ptr %8, align 4, !tbaa !16
  %54 = load ptr, ptr %9, align 8, !tbaa !55
  %55 = call i32 @sat_solver_addclause(ptr noundef %54, ptr noundef nonnull %3, ptr noundef nonnull %10) #19
  %.not = icmp eq i32 %55, 0
  br i1 %.not, label %56, label %24

56:                                               ; preds = %27
  %puts = call i32 @puts(ptr nonnull dereferenceable(1) @str.2)
  %57 = load ptr, ptr %9, align 8, !tbaa !55
  call void @sat_solver_delete(ptr noundef %57) #19
  store ptr null, ptr %9, align 8, !tbaa !55
  br label %.critedge

.critedge2.loopexit:                              ; preds = %.critedge4.loopexit
  %.val.pre = load i32, ptr %4, align 4, !tbaa !38
  br label %.critedge2

.critedge2:                                       ; preds = %.critedge2.loopexit, %11
  %.val = phi i32 [ %.val.pre, %.critedge2.loopexit ], [ %.val61, %11 ]
  %indvars.iv.next56 = add nuw nsw i64 %indvars.iv55, 1
  %58 = sext i32 %.val to i64
  %59 = icmp slt i64 %indvars.iv.next56, %58
  br i1 %59, label %11, label %.critedge, !llvm.loop !86

.critedge:                                        ; preds = %.critedge2, %2, %56
  call void @llvm.lifetime.end.p0(i64 8, ptr nonnull %3) #19
  ret void
}